#include <math.h>
#include <stdio.h>
#include <stdlib.h>
#include <string.h>



int main(int argc, char* argv[])
{
        int n,k,m;
        int apple(int n,int k);
        scanf("%d%d",&n,&k);
        m=apple(n,k);
        printf("%d",m);
        return 0;
}

        int apple(int n,int k){

            int m,rest,i;
			
			for(rest=1,i=1;i<=n;i++){
			if(i==1) m=rest*n+k;
			else if(m%(n-1)==0){
            m=m*n/(n-1)+k;}
			else{rest++;i=0;}}
			return m;}