; ModuleID = '54/994.c'
source_filename = "54/994.c"
target datalayout = "e-m:e-p270:32:32-p271:32:32-p272:64:64-i64:64-f80:128-n8:16:32:64-S128"
target triple = "x86_64-pc-linux-gnu"

@.str = private unnamed_addr constant [5 x i8] c"%d%d\00", align 1
@.str.1 = private unnamed_addr constant [3 x i8] c"%d\00", align 1

; Function Attrs: noinline nounwind uwtable
define dso_local i32 @main(i32 %0, i8** %1) #0 {
  %3 = alloca i32, align 4
  %4 = alloca i32, align 4
  %5 = alloca i8**, align 8
  %6 = alloca i32, align 4
  %7 = alloca i32, align 4
  %8 = alloca i32, align 4
  store i32 0, i32* %3, align 4
  store i32 %0, i32* %4, align 4
  store i8** %1, i8*** %5, align 8
  %9 = call i32 (i8*, ...) @__isoc99_scanf(i8* getelementptr inbounds ([5 x i8], [5 x i8]* @.str, i64 0, i64 0), i32* %6, i32* %7)
  %10 = load i32, i32* %6, align 4
  %11 = load i32, i32* %7, align 4
  %12 = call i32 @apple(i32 %10, i32 %11)
  store i32 %12, i32* %8, align 4
  %13 = load i32, i32* %8, align 4
  %14 = call i32 (i8*, ...) @printf(i8* getelementptr inbounds ([3 x i8], [3 x i8]* @.str.1, i64 0, i64 0), i32 %13)
  ret i32 0
}

declare dso_local i32 @__isoc99_scanf(i8*, ...) #1

; Function Attrs: noinline nounwind uwtable
define dso_local i32 @apple(i32 %0, i32 %1) #0 {
  %3 = alloca i32, align 4
  %4 = alloca i32, align 4
  %5 = alloca i32, align 4
  %6 = alloca i32, align 4
  %7 = alloca i32, align 4
  store i32 %0, i32* %3, align 4
  store i32 %1, i32* %4, align 4
  store i32 1, i32* %6, align 4
  store i32 1, i32* %7, align 4
  br label %8

8:                                                ; preds = %41, %2
  %9 = load i32, i32* %7, align 4
  %10 = load i32, i32* %3, align 4
  %11 = icmp sle i32 %9, %10
  br i1 %11, label %12, label %44

12:                                               ; preds = %8
  %13 = load i32, i32* %7, align 4
  %14 = icmp eq i32 %13, 1
  br i1 %14, label %15, label %21

15:                                               ; preds = %12
  %16 = load i32, i32* %6, align 4
  %17 = load i32, i32* %3, align 4
  %18 = mul nsw i32 %16, %17
  %19 = load i32, i32* %4, align 4
  %20 = add nsw i32 %18, %19
  store i32 %20, i32* %5, align 4
  br label %40

21:                                               ; preds = %12
  %22 = load i32, i32* %5, align 4
  %23 = load i32, i32* %3, align 4
  %24 = sub nsw i32 %23, 1
  %25 = srem i32 %22, %24
  %26 = icmp eq i32 %25, 0
  br i1 %26, label %27, label %36

27:                                               ; preds = %21
  %28 = load i32, i32* %5, align 4
  %29 = load i32, i32* %3, align 4
  %30 = mul nsw i32 %28, %29
  %31 = load i32, i32* %3, align 4
  %32 = sub nsw i32 %31, 1
  %33 = sdiv i32 %30, %32
  %34 = load i32, i32* %4, align 4
  %35 = add nsw i32 %33, %34
  store i32 %35, i32* %5, align 4
  br label %39

36:                                               ; preds = %21
  %37 = load i32, i32* %6, align 4
  %38 = add nsw i32 %37, 1
  store i32 %38, i32* %6, align 4
  store i32 0, i32* %7, align 4
  br label %39

39:                                               ; preds = %36, %27
  br label %40

40:                                               ; preds = %39, %15
  br label %41

41:                                               ; preds = %40
  %42 = load i32, i32* %7, align 4
  %43 = add nsw i32 %42, 1
  store i32 %43, i32* %7, align 4
  br label %8

44:                                               ; preds = %8
  %45 = load i32, i32* %5, align 4
  ret i32 %45
}

declare dso_local i32 @printf(i8*, ...) #1


!llvm.module.flags = !{!0}
!llvm.ident = !{!1}

!0 = !{i32 1, !"wchar_size", i32 4}
!1 = !{!"clang version 10.0.0-4ubuntu1 "}
